; Function Attrs: mustprogress uwtable
define void @_ZN8LightGBM13ParserFactory8RegisterENSt7__cxx1112basic_stringIcSt11char_traitsIcESaIcEEESt8functionIFPNS_6ParserES6_EE(ptr noundef nonnull align 8 dereferenceable(48) %0, ptr noundef %1, ptr noundef %2) local_unnamed_addr #5 align 2 personality ptr @__gxx_personality_v0 {
  %4 = alloca %"struct.std::pair", align 8
  %5 = getelementptr inbounds nuw i8, ptr %2, i64 16
  %6 = load ptr, ptr %5, align 8, !tbaa !124
  %.not.i.i.not = icmp eq ptr %6, null
  br i1 %.not.i.i.not, label %25, label %7

7:                                                ; preds = %3
  call void @llvm.lifetime.start.p0(i64 64, ptr nonnull %4) #33
  call void @_ZNSt4pairIKNSt7__cxx1112basic_stringIcSt11char_traitsIcESaIcEEESt8functionIFPN8LightGBM6ParserES5_EEEC2IRS5_RSC_TnNSt9enable_ifIXaaclsr5_PCCPE22_MoveConstructiblePairIT_T0_EEclsr5_PCCPE30_ImplicitlyMoveConvertiblePairISI_SJ_EEEbE4typeELb1EEEOSI_OSJ_(ptr noundef nonnull align 8 dereferenceable(64) %4, ptr noundef nonnull align 8 dereferenceable(32) %1, ptr noundef nonnull align 8 dereferenceable(32) %2)
  %8 = invoke { ptr, i8 } @_ZNSt8_Rb_treeINSt7__cxx1112basic_stringIcSt11char_traitsIcESaIcEEESt4pairIKS5_St8functionIFPN8LightGBM6ParserES5_EEESt10_Select1stISE_ESt4lessIS5_ESaISE_EE16_M_insert_uniqueISE_EES6_ISt17_Rb_tree_iteratorISE_EbEOT_(ptr noundef nonnull align 8 dereferenceable(48) %0, ptr noundef nonnull align 8 dereferenceable(64) %4)
          to label %_ZNSt3mapINSt7__cxx1112basic_stringIcSt11char_traitsIcESaIcEEESt8functionIFPN8LightGBM6ParserES5_EESt4lessIS5_ESaISt4pairIKS5_SB_EEE6insertEOSG_.exit unwind label %23

_ZNSt3mapINSt7__cxx1112basic_stringIcSt11char_traitsIcESaIcEEESt8functionIFPN8LightGBM6ParserES5_EESt4lessIS5_ESaISt4pairIKS5_SB_EEE6insertEOSG_.exit: ; preds = %7
  %9 = getelementptr inbounds nuw i8, ptr %4, i64 48
  %10 = load ptr, ptr %9, align 8, !tbaa !124
  %.not.i.i2 = icmp eq ptr %10, null
  br i1 %.not.i.i2, label %_ZNSt14_Function_baseD2Ev.exit.i, label %11

11:                                               ; preds = %_ZNSt3mapINSt7__cxx1112basic_stringIcSt11char_traitsIcESaIcEEESt8functionIFPN8LightGBM6ParserES5_EESt4lessIS5_ESaISt4pairIKS5_SB_EEE6insertEOSG_.exit
  %12 = getelementptr inbounds nuw i8, ptr %4, i64 32
  %13 = invoke noundef zeroext i1 %10(ptr noundef nonnull align 8 dereferenceable(32) %12, ptr noundef nonnull align 8 dereferenceable(32) %12, i32 noundef 3)
          to label %_ZNSt14_Function_baseD2Ev.exit.i unwind label %14

14:                                               ; preds = %11
  %15 = landingpad { ptr, i32 }
          catch ptr null
  %16 = extractvalue { ptr, i32 } %15, 0
  call void @__clang_call_terminate(ptr %16) #36
  unreachable

_ZNSt14_Function_baseD2Ev.exit.i:                 ; preds = %11, %_ZNSt3mapINSt7__cxx1112basic_stringIcSt11char_traitsIcESaIcEEESt8functionIFPN8LightGBM6ParserES5_EESt4lessIS5_ESaISt4pairIKS5_SB_EEE6insertEOSG_.exit
  %17 = load ptr, ptr %4, align 8, !tbaa !15
  %18 = getelementptr inbounds nuw i8, ptr %4, i64 16
  %19 = icmp eq ptr %17, %18
  br i1 %19, label %_ZNKSt7__cxx1112basic_stringIcSt11char_traitsIcESaIcEE11_M_is_localEv.exit.thread.i.i.i, label %_ZNKSt7__cxx1112basic_stringIcSt11char_traitsIcESaIcEE11_M_is_localEv.exit.i.i.i

_ZNKSt7__cxx1112basic_stringIcSt11char_traitsIcESaIcEE11_M_is_localEv.exit.thread.i.i.i: ; preds = %_ZNSt14_Function_baseD2Ev.exit.i
  %20 = getelementptr inbounds nuw i8, ptr %4, i64 8
  %21 = load i64, ptr %20, align 8, !tbaa !18
  %22 = icmp ult i64 %21, 16
  call void @llvm.assume(i1 %22)
  br label %_ZNSt4pairIKNSt7__cxx1112basic_stringIcSt11char_traitsIcESaIcEEESt8functionIFPN8LightGBM6ParserES5_EEED2Ev.exit

_ZNKSt7__cxx1112basic_stringIcSt11char_traitsIcESaIcEE11_M_is_localEv.exit.i.i.i: ; preds = %_ZNSt14_Function_baseD2Ev.exit.i
  call void @_ZdlPv(ptr noundef %17) #34
  br label %_ZNSt4pairIKNSt7__cxx1112basic_stringIcSt11char_traitsIcESaIcEEESt8functionIFPN8LightGBM6ParserES5_EEED2Ev.exit

_ZNSt4pairIKNSt7__cxx1112basic_stringIcSt11char_traitsIcESaIcEEESt8functionIFPN8LightGBM6ParserES5_EEED2Ev.exit: ; preds = %_ZNKSt7__cxx1112basic_stringIcSt11char_traitsIcESaIcEE11_M_is_localEv.exit.thread.i.i.i, %_ZNKSt7__cxx1112basic_stringIcSt11char_traitsIcESaIcEE11_M_is_localEv.exit.i.i.i
  call void @llvm.lifetime.end.p0(i64 64, ptr nonnull %4) #33
  br label %25

23:                                               ; preds = %7
  %24 = landingpad { ptr, i32 }
          cleanup
  call void @_ZNSt4pairIKNSt7__cxx1112basic_stringIcSt11char_traitsIcESaIcEEESt8functionIFPN8LightGBM6ParserES5_EEED2Ev(ptr noundef nonnull align 8 dereferenceable(64) %4) #33
  call void @llvm.lifetime.end.p0(i64 64, ptr nonnull %4) #33
  resume { ptr, i32 } %24

25:                                               ; preds = %_ZNSt4pairIKNSt7__cxx1112basic_stringIcSt11char_traitsIcESaIcEEESt8functionIFPN8LightGBM6ParserES5_EEED2Ev.exit, %3
  ret void
}